target datalayout = "e-m:e-p270:32:32-p271:32:32-p272:64:64-i64:64-i128:128-f80:128-n8:16:32:64-S128"
target triple = "x86_64-unknown-linux-gnu"

%"class.google::protobuf::internal::InternalMetadata" = type { i64 }
%"struct.google::protobuf::internal::ArenaStringPtr" = type { %"class.google::protobuf::internal::TaggedStringPtr" }
%"class.google::protobuf::internal::TaggedStringPtr" = type { ptr }
%"class.google::protobuf::internal::CachedSize" = type { i32 }
%"class.google::protobuf::Message" = type { %"class.google::protobuf::MessageLite" }
%"class.google::protobuf::MessageLite" = type { ptr, %"class.google::protobuf::internal::InternalMetadata" }
%"class.google::protobuf::Mixin" = type { %"class.google::protobuf::Message", %union.anon }
%union.anon = type { %"struct.google::protobuf::Mixin::Impl_" }
%"struct.google::protobuf::Mixin::Impl_" = type <{ %"struct.google::protobuf::internal::ArenaStringPtr", %"struct.google::protobuf::internal::ArenaStringPtr", %"class.google::protobuf::internal::CachedSize", [4 x i8] }>

; Function Attrs: mustprogress uwtable
define linkonce_odr hidden void @_ZN6google8protobuf5Mixin9MergeFromERKS1_(ptr noundef nonnull align 8 dereferenceable(40) %this, ptr noundef nonnull align 8 dereferenceable(40) %from) #4 comdat align 2 {
entry:
  %this.addr = alloca ptr, align 8
  %from.addr = alloca ptr, align 8
  store ptr %this, ptr %this.addr, align 8
  store ptr %from, ptr %from.addr, align 8
  %this1 = load ptr, ptr %this.addr, align 8
  %0 = load ptr, ptr %from.addr, align 8
  call void @_ZN6google8protobuf5Mixin9MergeImplERNS0_11MessageLiteERKS2_(ptr noundef nonnull align 8 dereferenceable(16) %this1, ptr noundef nonnull align 8 dereferenceable(16) %0)
  ret void
}

; Function Attrs: mustprogress uwtable
define void @_ZN6google8protobuf5Mixin5ClearEv(ptr noundef nonnull align 8 dereferenceable(40) %this) unnamed_addr #4 align 2 {
entry:
  %this.addr.i5 = alloca ptr, align 8
  %this.addr.i2 = alloca ptr, align 8
  %this.addr.i = alloca ptr, align 8
  %this.addr = alloca ptr, align 8
  %cached_has_bits = alloca i32, align 4
  store ptr %this, ptr %this.addr, align 8
  %this1 = load ptr, ptr %this.addr, align 8
  store i32 0, ptr %cached_has_bits, align 4
  %0 = getelementptr inbounds %"class.google::protobuf::Mixin", ptr %this1, i32 0, i32 1
  %name_ = getelementptr inbounds %"struct.google::protobuf::Mixin::Impl_", ptr %0, i32 0, i32 0
  call void @_ZN6google8protobuf8internal14ArenaStringPtr12ClearToEmptyEv(ptr noundef nonnull align 8 dereferenceable(8) %name_)
  %1 = getelementptr inbounds %"class.google::protobuf::Mixin", ptr %this1, i32 0, i32 1
  %root_ = getelementptr inbounds %"struct.google::protobuf::Mixin::Impl_", ptr %1, i32 0, i32 1
  call void @_ZN6google8protobuf8internal14ArenaStringPtr12ClearToEmptyEv(ptr noundef nonnull align 8 dereferenceable(8) %root_)
  %_internal_metadata_ = getelementptr inbounds %"class.google::protobuf::MessageLite", ptr %this1, i32 0, i32 1
  store ptr %_internal_metadata_, ptr %this.addr.i, align 8
  %this1.i = load ptr, ptr %this.addr.i, align 8
  store ptr %this1.i, ptr %this.addr.i2, align 8
  %this1.i3 = load ptr, ptr %this.addr.i2, align 8
  store ptr %this1.i3, ptr %this.addr.i5, align 8
  %this1.i6 = load ptr, ptr %this.addr.i5, align 8
  %2 = load i64, ptr %this1.i6, align 8
  %and.i = and i64 %2, 1
  %tobool.i = icmp ne i64 %and.i, 0
  br i1 %tobool.i, label %if.then.i, label %_ZN6google8protobuf8internal16InternalMetadata5ClearINS0_15UnknownFieldSetEEEvv.exit

if.then.i:                                        ; preds = %entry
  call void @_ZN6google8protobuf8internal16InternalMetadata7DoClearINS0_15UnknownFieldSetEEEvv(ptr noundef nonnull align 8 dereferenceable(8) %this1.i)
  br label %_ZN6google8protobuf8internal16InternalMetadata5ClearINS0_15UnknownFieldSetEEEvv.exit

_ZN6google8protobuf8internal16InternalMetadata5ClearINS0_15UnknownFieldSetEEEvv.exit: ; preds = %if.then.i, %entry
  ret void
}

; Function Attrs: mustprogress uwtable
define void @_ZN6google8protobuf5Mixin8CopyFromERKS1_(ptr noundef nonnull align 8 dereferenceable(40) %this, ptr noundef nonnull align 8 dereferenceable(40) %from) #4 align 2 {
entry:
  %this.addr = alloca ptr, align 8
  %from.addr = alloca ptr, align 8
  store ptr %this, ptr %this.addr, align 8
  store ptr %from, ptr %from.addr, align 8
  %this1 = load ptr, ptr %this.addr, align 8
  %0 = load ptr, ptr %from.addr, align 8
  %cmp = icmp eq ptr %0, %this1
  br i1 %cmp, label %if.then, label %if.end

if.then:                                          ; preds = %entry
  br label %return

if.end:                                           ; preds = %entry
  call void @_ZN6google8protobuf5Mixin5ClearEv(ptr noundef nonnull align 8 dereferenceable(40) %this1)
  %1 = load ptr, ptr %from.addr, align 8
  call void @_ZN6google8protobuf5Mixin9MergeFromERKS1_(ptr noundef nonnull align 8 dereferenceable(40) %this1, ptr noundef nonnull align 8 dereferenceable(40) %1)
  br label %return

return:                                           ; preds = %if.end, %if.then
  ret void
}